target datalayout = "e-m:e-p270:32:32-p271:32:32-p272:64:64-i64:64-i128:128-f80:128-n8:16:32:64-S128"
target triple = "x86_64-pc-linux-gnu"

%struct._zval_struct = type { %union._zend_value, %union.anon.3, %union.anon.6 }
%union._zend_value = type { i64 }
%union.anon.3 = type { i32 }
%union.anon.6 = type { i32 }
%struct._zend_op_array = type { i8, [3 x i8], i32, ptr, ptr, ptr, i32, i32, ptr, ptr, ptr, ptr, i32, i32, i32, i32, ptr, ptr, ptr, ptr, ptr, i32, i32, ptr, ptr, ptr, i32, i32, i32, i32, ptr, ptr, [6 x ptr] }
%struct._zend_op = type { ptr, %union._znode_op, %union._znode_op, %union._znode_op, i32, i32, i8, i8, i8, i8 }
%union._znode_op = type { i32 }
%struct.anon.4 = type { i8, i8, %union.anon.5 }
%union.anon.5 = type { i16 }

; Function Attrs: nounwind uwtable
define internal void @replace_by_const_or_qm_assign(ptr noundef %0, ptr noundef %1, ptr noundef %2) #0 {
  %4 = alloca ptr, align 8
  %5 = alloca ptr, align 8
  %6 = alloca ptr, align 8
  %7 = alloca ptr, align 8
  %8 = alloca ptr, align 8
  %9 = alloca ptr, align 8
  %10 = alloca ptr, align 8
  %11 = alloca ptr, align 8
  %12 = alloca ptr, align 8
  store ptr %0, ptr %10, align 8
  store ptr %1, ptr %11, align 8
  store ptr %2, ptr %12, align 8
  %13 = load ptr, ptr %11, align 8
  %14 = getelementptr inbounds %struct._zend_op, ptr %13, i32 0, i32 7
  %15 = load i8, ptr %14, align 1
  %16 = zext i8 %15 to i32
  %17 = icmp eq i32 %16, 1
  br i1 %17, label %18, label %67

18:                                               ; preds = %3
  br label %19

19:                                               ; preds = %18
  %20 = load ptr, ptr %10, align 8
  %21 = getelementptr inbounds %struct._zend_op_array, ptr %20, i32 0, i32 30
  %22 = load ptr, ptr %21, align 8
  %23 = load ptr, ptr %11, align 8
  %24 = getelementptr inbounds %struct._zend_op, ptr %23, i32 0, i32 1
  %25 = load i32, ptr %24, align 8
  %26 = zext i32 %25 to i64
  %27 = getelementptr inbounds %struct._zval_struct, ptr %22, i64 %26
  store ptr %27, ptr %8, align 8
  %28 = load ptr, ptr %8, align 8
  %29 = getelementptr inbounds %struct._zval_struct, ptr %28, i32 0, i32 1
  %30 = getelementptr inbounds %struct.anon.4, ptr %29, i32 0, i32 1
  %31 = load i8, ptr %30, align 1
  %32 = zext i8 %31 to i32
  %33 = icmp ne i32 %32, 0
  br i1 %33, label %34, label %54

34:                                               ; preds = %19
  %35 = load ptr, ptr %8, align 8
  store ptr %35, ptr %7, align 8
  %36 = load ptr, ptr %7, align 8
  %37 = getelementptr inbounds %struct._zval_struct, ptr %36, i32 0, i32 1
  %38 = getelementptr inbounds %struct.anon.4, ptr %37, i32 0, i32 1
  %39 = load i8, ptr %38, align 1
  %40 = zext i8 %39 to i32
  %41 = icmp ne i32 %40, 0
  call void @llvm.assume(i1 %41)
  %42 = load ptr, ptr %7, align 8
  %43 = load ptr, ptr %42, align 8
  store ptr %43, ptr %4, align 8
  %44 = load ptr, ptr %4, align 8
  %45 = load i32, ptr %44, align 4
  %46 = icmp ugt i32 %45, 0
  call void @llvm.assume(i1 %46)
  %47 = load ptr, ptr %4, align 8
  %48 = load i32, ptr %47, align 4
  %49 = add i32 %48, -1
  store i32 %49, ptr %47, align 4
  %50 = icmp ne i32 %49, 0
  br i1 %50, label %54, label %51

51:                                               ; preds = %34
  %52 = load ptr, ptr %8, align 8
  %53 = load ptr, ptr %52, align 8
  call void @rc_dtor_func(ptr noundef %53) #7
  br label %54

54:                                               ; preds = %51, %34, %19
  br label %55

55:                                               ; preds = %54
  %56 = load ptr, ptr %10, align 8
  %57 = getelementptr inbounds %struct._zend_op_array, ptr %56, i32 0, i32 30
  %58 = load ptr, ptr %57, align 8
  %59 = load ptr, ptr %11, align 8
  %60 = getelementptr inbounds %struct._zend_op, ptr %59, i32 0, i32 1
  %61 = load i32, ptr %60, align 8
  %62 = zext i32 %61 to i64
  %63 = getelementptr inbounds %struct._zval_struct, ptr %58, i64 %62
  %64 = getelementptr inbounds %struct._zval_struct, ptr %63, i32 0, i32 1
  store i32 1, ptr %64, align 8
  br label %65

65:                                               ; preds = %55
  br label %66

66:                                               ; preds = %65
  br label %67

67:                                               ; preds = %66, %3
  %68 = load ptr, ptr %11, align 8
  %69 = getelementptr inbounds %struct._zend_op, ptr %68, i32 0, i32 8
  %70 = load i8, ptr %69, align 2
  %71 = zext i8 %70 to i32
  %72 = icmp eq i32 %71, 1
  br i1 %72, label %73, label %122

73:                                               ; preds = %67
  br label %74

74:                                               ; preds = %73
  %75 = load ptr, ptr %10, align 8
  %76 = getelementptr inbounds %struct._zend_op_array, ptr %75, i32 0, i32 30
  %77 = load ptr, ptr %76, align 8
  %78 = load ptr, ptr %11, align 8
  %79 = getelementptr inbounds %struct._zend_op, ptr %78, i32 0, i32 2
  %80 = load i32, ptr %79, align 4
  %81 = zext i32 %80 to i64
  %82 = getelementptr inbounds %struct._zval_struct, ptr %77, i64 %81
  store ptr %82, ptr %9, align 8
  %83 = load ptr, ptr %9, align 8
  %84 = getelementptr inbounds %struct._zval_struct, ptr %83, i32 0, i32 1
  %85 = getelementptr inbounds %struct.anon.4, ptr %84, i32 0, i32 1
  %86 = load i8, ptr %85, align 1
  %87 = zext i8 %86 to i32
  %88 = icmp ne i32 %87, 0
  br i1 %88, label %89, label %109

89:                                               ; preds = %74
  %90 = load ptr, ptr %9, align 8
  store ptr %90, ptr %6, align 8
  %91 = load ptr, ptr %6, align 8
  %92 = getelementptr inbounds %struct._zval_struct, ptr %91, i32 0, i32 1
  %93 = getelementptr inbounds %struct.anon.4, ptr %92, i32 0, i32 1
  %94 = load i8, ptr %93, align 1
  %95 = zext i8 %94 to i32
  %96 = icmp ne i32 %95, 0
  call void @llvm.assume(i1 %96)
  %97 = load ptr, ptr %6, align 8
  %98 = load ptr, ptr %97, align 8
  store ptr %98, ptr %5, align 8
  %99 = load ptr, ptr %5, align 8
  %100 = load i32, ptr %99, align 4
  %101 = icmp ugt i32 %100, 0
  call void @llvm.assume(i1 %101)
  %102 = load ptr, ptr %5, align 8
  %103 = load i32, ptr %102, align 4
  %104 = add i32 %103, -1
  store i32 %104, ptr %102, align 4
  %105 = icmp ne i32 %104, 0
  br i1 %105, label %109, label %106

106:                                              ; preds = %89
  %107 = load ptr, ptr %9, align 8
  %108 = load ptr, ptr %107, align 8
  call void @rc_dtor_func(ptr noundef %108) #7
  br label %109

109:                                              ; preds = %106, %89, %74
  br label %110

110:                                              ; preds = %109
  %111 = load ptr, ptr %10, align 8
  %112 = getelementptr inbounds %struct._zend_op_array, ptr %111, i32 0, i32 30
  %113 = load ptr, ptr %112, align 8
  %114 = load ptr, ptr %11, align 8
  %115 = getelementptr inbounds %struct._zend_op, ptr %114, i32 0, i32 2
  %116 = load i32, ptr %115, align 4
  %117 = zext i32 %116 to i64
  %118 = getelementptr inbounds %struct._zval_struct, ptr %113, i64 %117
  %119 = getelementptr inbounds %struct._zval_struct, ptr %118, i32 0, i32 1
  store i32 1, ptr %119, align 8
  br label %120

120:                                              ; preds = %110
  br label %121

121:                                              ; preds = %120
  br label %122

122:                                              ; preds = %121, %67
  %123 = load ptr, ptr %10, align 8
  %124 = load ptr, ptr %11, align 8
  %125 = getelementptr inbounds %struct._zend_op, ptr %124, i64 1
  %126 = load ptr, ptr %11, align 8
  %127 = getelementptr inbounds %struct._zend_op, ptr %126, i32 0, i32 9
  %128 = load i8, ptr %127, align 1
  %129 = load ptr, ptr %11, align 8
  %130 = getelementptr inbounds %struct._zend_op, ptr %129, i32 0, i32 3
  %131 = load i32, ptr %130, align 8
  %132 = load ptr, ptr %12, align 8
  %133 = call zeroext i1 @zend_optimizer_replace_by_const(ptr noundef %123, ptr noundef %125, i8 noundef zeroext %128, i32 noundef %131, ptr noundef %132)
  br i1 %133, label %134, label %157

134:                                              ; preds = %122
  br label %135

135:                                              ; preds = %134
  %136 = load ptr, ptr %11, align 8
  %137 = getelementptr inbounds %struct._zend_op, ptr %136, i32 0, i32 6
  store i8 0, ptr %137, align 4
  br label %138

138:                                              ; preds = %135
  %139 = load ptr, ptr %11, align 8
  %140 = getelementptr inbounds %struct._zend_op, ptr %139, i32 0, i32 7
  store i8 0, ptr %140, align 1
  %141 = load ptr, ptr %11, align 8
  %142 = getelementptr inbounds %struct._zend_op, ptr %141, i32 0, i32 1
  store i32 -1, ptr %142, align 8
  br label %143

143:                                              ; preds = %138
  br label %144

144:                                              ; preds = %143
  %145 = load ptr, ptr %11, align 8
  %146 = getelementptr inbounds %struct._zend_op, ptr %145, i32 0, i32 8
  store i8 0, ptr %146, align 2
  %147 = load ptr, ptr %11, align 8
  %148 = getelementptr inbounds %struct._zend_op, ptr %147, i32 0, i32 2
  store i32 -1, ptr %148, align 4
  br label %149

149:                                              ; preds = %144
  br label %150

150:                                              ; preds = %149
  %151 = load ptr, ptr %11, align 8
  %152 = getelementptr inbounds %struct._zend_op, ptr %151, i32 0, i32 9
  store i8 0, ptr %152, align 1
  %153 = load ptr, ptr %11, align 8
  %154 = getelementptr inbounds %struct._zend_op, ptr %153, i32 0, i32 3
  store i32 -1, ptr %154, align 8
  br label %155

155:                                              ; preds = %150
  br label %156

156:                                              ; preds = %155
  br label %172

157:                                              ; preds = %122
  %158 = load ptr, ptr %11, align 8
  %159 = getelementptr inbounds %struct._zend_op, ptr %158, i32 0, i32 6
  store i8 31, ptr %159, align 4
  %160 = load ptr, ptr %11, align 8
  %161 = getelementptr inbounds %struct._zend_op, ptr %160, i32 0, i32 4
  store i32 0, ptr %161, align 4
  br label %162

162:                                              ; preds = %157
  %163 = load ptr, ptr %11, align 8
  %164 = getelementptr inbounds %struct._zend_op, ptr %163, i32 0, i32 8
  store i8 0, ptr %164, align 2
  %165 = load ptr, ptr %11, align 8
  %166 = getelementptr inbounds %struct._zend_op, ptr %165, i32 0, i32 2
  store i32 -1, ptr %166, align 4
  br label %167

167:                                              ; preds = %162
  %168 = load ptr, ptr %10, align 8
  %169 = load ptr, ptr %11, align 8
  %170 = load ptr, ptr %12, align 8
  %171 = call zeroext i1 @zend_optimizer_update_op1_const(ptr noundef %168, ptr noundef %169, ptr noundef %170)
  br label %172

172:                                              ; preds = %167, %156
  ret void
}