; Function Attrs: nounwind uwtable
define internal fastcc void @replace_by_const_or_qm_assign(ptr noundef %0, ptr noundef %1, ptr noundef %2) unnamed_addr #0 {
  %4 = getelementptr inbounds i8, ptr %1, i64 29
  %5 = load i8, ptr %4, align 1
  %6 = icmp eq i8 %5, 1
  br i1 %6, label %7, label %28

7:                                                ; preds = %3
  %8 = getelementptr inbounds i8, ptr %0, i64 176
  %9 = load ptr, ptr %8, align 8
  %10 = getelementptr inbounds i8, ptr %1, i64 8
  %11 = load i32, ptr %10, align 8
  %12 = zext i32 %11 to i64
  %13 = getelementptr inbounds %struct._zval_struct, ptr %9, i64 %12
  %14 = getelementptr inbounds i8, ptr %13, i64 9
  %15 = load i8, ptr %14, align 1
  %.not = icmp eq i8 %15, 0
  br i1 %.not, label %23, label %16

16:                                               ; preds = %7
  %17 = load ptr, ptr %13, align 8
  %18 = load i32, ptr %17, align 4
  %19 = icmp ne i32 %18, 0
  tail call void @llvm.assume(i1 %19)
  %20 = add i32 %18, -1
  store i32 %20, ptr %17, align 4
  %.not43 = icmp eq i32 %20, 0
  br i1 %.not43, label %21, label %23

21:                                               ; preds = %16
  %22 = load ptr, ptr %13, align 8
  tail call void @rc_dtor_func(ptr noundef %22) #6
  br label %23

23:                                               ; preds = %7, %16, %21
  %24 = load ptr, ptr %8, align 8
  %25 = load i32, ptr %10, align 8
  %26 = zext i32 %25 to i64
  %27 = getelementptr inbounds %struct._zval_struct, ptr %24, i64 %26, i32 1
  store i32 1, ptr %27, align 8
  br label %28

28:                                               ; preds = %23, %3
  %29 = getelementptr inbounds i8, ptr %1, i64 30
  %30 = load i8, ptr %29, align 2
  %31 = icmp eq i8 %30, 1
  br i1 %31, label %32, label %53

32:                                               ; preds = %28
  %33 = getelementptr inbounds i8, ptr %0, i64 176
  %34 = load ptr, ptr %33, align 8
  %35 = getelementptr inbounds i8, ptr %1, i64 12
  %36 = load i32, ptr %35, align 4
  %37 = zext i32 %36 to i64
  %38 = getelementptr inbounds %struct._zval_struct, ptr %34, i64 %37
  %39 = getelementptr inbounds i8, ptr %38, i64 9
  %40 = load i8, ptr %39, align 1
  %.not44 = icmp eq i8 %40, 0
  br i1 %.not44, label %48, label %41

41:                                               ; preds = %32
  %42 = load ptr, ptr %38, align 8
  %43 = load i32, ptr %42, align 4
  %44 = icmp ne i32 %43, 0
  tail call void @llvm.assume(i1 %44)
  %45 = add i32 %43, -1
  store i32 %45, ptr %42, align 4
  %.not45 = icmp eq i32 %45, 0
  br i1 %.not45, label %46, label %48

46:                                               ; preds = %41
  %47 = load ptr, ptr %38, align 8
  tail call void @rc_dtor_func(ptr noundef %47) #6
  br label %48

48:                                               ; preds = %32, %41, %46
  %49 = load ptr, ptr %33, align 8
  %50 = load i32, ptr %35, align 4
  %51 = zext i32 %50 to i64
  %52 = getelementptr inbounds %struct._zval_struct, ptr %49, i64 %51, i32 1
  store i32 1, ptr %52, align 8
  br label %53

53:                                               ; preds = %48, %28
  %54 = getelementptr inbounds i8, ptr %1, i64 32
  %55 = getelementptr inbounds i8, ptr %1, i64 31
  %56 = load i8, ptr %55, align 1
  %57 = getelementptr inbounds i8, ptr %1, i64 16
  %58 = load i32, ptr %57, align 8
  %59 = tail call zeroext i1 @zend_optimizer_replace_by_const(ptr noundef %0, ptr noundef nonnull %54, i8 noundef zeroext %56, i32 noundef %58, ptr noundef %2) #6
  %60 = getelementptr inbounds i8, ptr %1, i64 28
  br i1 %59, label %61, label %64

61:                                               ; preds = %53
  store i8 0, ptr %60, align 4
  store i8 0, ptr %4, align 1
  %62 = getelementptr inbounds i8, ptr %1, i64 8
  store i32 -1, ptr %62, align 8
  store i8 0, ptr %29, align 2
  %63 = getelementptr inbounds i8, ptr %1, i64 12
  store i32 -1, ptr %63, align 4
  store i8 0, ptr %55, align 1
  store i32 -1, ptr %57, align 8
  br label %68

64:                                               ; preds = %53
  store i8 31, ptr %60, align 4
  %65 = getelementptr inbounds i8, ptr %1, i64 20
  store i32 0, ptr %65, align 4
  store i8 0, ptr %29, align 2
  %66 = getelementptr inbounds i8, ptr %1, i64 12
  store i32 -1, ptr %66, align 4
  %67 = tail call zeroext i1 @zend_optimizer_update_op1_const(ptr noundef %0, ptr noundef nonnull %1, ptr noundef %2) #6
  br label %68

68:                                               ; preds = %64, %61
  ret void
}